; Function Attrs: mustprogress nounwind uwtable
define hidden void @_ZN9Handshake7executeEP16HandshakeClosure(ptr noundef %0) local_unnamed_addr #0 align 2 {
  %2 = alloca %class.HandshakeOperation, align 8
  %3 = alloca %class.VM_HandshakeAllThreads, align 8
  %4 = tail call align 8 ptr @llvm.threadlocal.address.p0(ptr align 8 @_ZN6Thread12_thr_currentE)
  %5 = load ptr, ptr %4, align 8
  store ptr getelementptr inbounds inrange(-16, 16) (i8, ptr @_ZTV18HandshakeOperation, i64 16), ptr %2, align 8
  %6 = getelementptr inbounds i8, ptr %2, i64 8
  store ptr %0, ptr %6, align 8
  %7 = getelementptr inbounds i8, ptr %2, i64 16
  store i32 1, ptr %7, align 8
  %8 = getelementptr inbounds i8, ptr %2, i64 24
  store ptr null, ptr %8, align 8
  %9 = getelementptr inbounds i8, ptr %2, i64 32
  store ptr %5, ptr %9, align 8
  %10 = getelementptr inbounds i8, ptr %3, i64 8
  store ptr null, ptr %10, align 8
  store ptr getelementptr inbounds inrange(-16, 80) (i8, ptr @_ZTV22VM_HandshakeAllThreads, i64 16), ptr %3, align 8
  %11 = getelementptr inbounds i8, ptr %3, i64 16
  store ptr %2, ptr %11, align 8
  call void @_ZN8VMThread7executeEP12VM_Operation(ptr noundef nonnull %3) #11
  ret void
}